target datalayout = "e-m:e-p270:32:32-p271:32:32-p272:64:64-i64:64-i128:128-f80:128-n8:16:32:64-S128"
target triple = "x86_64-pc-linux-gnu"

%struct.json_dumper = type { ptr, ptr, i32, i32, i32, i32, [1100 x i8] }

@dumper = internal global %struct.json_dumper zeroinitializer, align 8
@.str.20 = private unnamed_addr constant [4 x i8] c"tap\00", align 1
@.str.83 = private unnamed_addr constant [5 x i8] c"name\00", align 1
@.str.167 = private unnamed_addr constant [21 x i8] c"Conversation List/%s\00", align 1
@.str.168 = private unnamed_addr constant [8 x i8] c"conv:%s\00", align 1
@.str.169 = private unnamed_addr constant [12 x i8] c"Endpoint/%s\00", align 1
@.str.170 = private unnamed_addr constant [9 x i8] c"endpt:%s\00", align 1

; Function Attrs: null_pointer_is_valid sspstrong uwtable
define internal zeroext i1 @sharkd_session_process_info_conv_cb(ptr noundef %0, ptr noundef %1, ptr noundef %2) #0 {
  %4 = alloca ptr, align 8
  %5 = alloca ptr, align 8
  %6 = alloca ptr, align 8
  %7 = alloca ptr, align 8
  %8 = alloca ptr, align 8
  store ptr %0, ptr %4, align 8
  store ptr %1, ptr %5, align 8
  store ptr %2, ptr %6, align 8
  call void @llvm.lifetime.start.p0(i64 8, ptr %7) #21
  %9 = load ptr, ptr %5, align 8
  store ptr %9, ptr %7, align 8
  call void @llvm.lifetime.start.p0(i64 8, ptr %8) #21
  %10 = load ptr, ptr %4, align 8
  store ptr %10, ptr %8, align 8
  %11 = load ptr, ptr %7, align 8
  %12 = call ptr @get_conversation_packet_func(ptr noundef %11)
  %13 = icmp ne ptr %12, null
  br i1 %13, label %14, label %17

14:                                               ; preds = %3
  call void @json_dumper_begin_object(ptr noundef @dumper)
  %15 = load ptr, ptr %8, align 8
  call void (ptr, ptr, ...) @sharkd_json_value_stringf(ptr noundef @.str.83, ptr noundef @.str.167, ptr noundef %15)
  %16 = load ptr, ptr %8, align 8
  call void (ptr, ptr, ...) @sharkd_json_value_stringf(ptr noundef @.str.20, ptr noundef @.str.168, ptr noundef %16)
  call void @json_dumper_end_object(ptr noundef @dumper)
  br label %17

17:                                               ; preds = %14, %3
  %18 = load ptr, ptr %7, align 8
  %19 = call ptr @get_endpoint_packet_func(ptr noundef %18)
  %20 = icmp ne ptr %19, null
  br i1 %20, label %21, label %24

21:                                               ; preds = %17
  call void @json_dumper_begin_object(ptr noundef @dumper)
  %22 = load ptr, ptr %8, align 8
  call void (ptr, ptr, ...) @sharkd_json_value_stringf(ptr noundef @.str.83, ptr noundef @.str.169, ptr noundef %22)
  %23 = load ptr, ptr %8, align 8
  call void (ptr, ptr, ...) @sharkd_json_value_stringf(ptr noundef @.str.20, ptr noundef @.str.170, ptr noundef %23)
  call void @json_dumper_end_object(ptr noundef @dumper)
  br label %24

24:                                               ; preds = %21, %17
  call void @llvm.lifetime.end.p0(i64 8, ptr %8) #21
  call void @llvm.lifetime.end.p0(i64 8, ptr %7) #21
  ret i1 false
}