; Function Attrs: null_pointer_is_valid sspstrong uwtable
define internal noundef zeroext i1 @sharkd_session_process_info_conv_cb(ptr noundef %0, ptr noundef %1, ptr readnone captures(none) %2) #0 {
  %4 = tail call ptr @get_conversation_packet_func(ptr noundef %1)
  %.not = icmp eq ptr %4, null
  br i1 %.not, label %6, label %5

5:                                                ; preds = %3
  tail call void @json_dumper_begin_object(ptr noundef nonnull @dumper)
  tail call void (ptr, ptr, ...) @sharkd_json_value_stringf(ptr noundef nonnull @.str.83, ptr noundef nonnull @.str.167, ptr noundef %0)
  tail call void (ptr, ptr, ...) @sharkd_json_value_stringf(ptr noundef nonnull @.str.20, ptr noundef nonnull @.str.168, ptr noundef %0)
  tail call void @json_dumper_end_object(ptr noundef nonnull @dumper)
  br label %6

6:                                                ; preds = %5, %3
  %7 = tail call ptr @get_endpoint_packet_func(ptr noundef %1)
  %.not8 = icmp eq ptr %7, null
  br i1 %.not8, label %9, label %8

8:                                                ; preds = %6
  tail call void @json_dumper_begin_object(ptr noundef nonnull @dumper)
  tail call void (ptr, ptr, ...) @sharkd_json_value_stringf(ptr noundef nonnull @.str.83, ptr noundef nonnull @.str.169, ptr noundef %0)
  tail call void (ptr, ptr, ...) @sharkd_json_value_stringf(ptr noundef nonnull @.str.20, ptr noundef nonnull @.str.170, ptr noundef %0)
  tail call void @json_dumper_end_object(ptr noundef nonnull @dumper)
  br label %9

9:                                                ; preds = %8, %6
  ret i1 false
}